target datalayout = "e-m:e-p270:32:32-p271:32:32-p272:64:64-i64:64-i128:128-f80:128-n8:16:32:64-S128"
target triple = "x86_64-pc-linux-gnu"

%struct._SPI_connection = type { i64, ptr, i32, %struct.slist_head, ptr, ptr, ptr, i32, ptr, i8, i8, i64, ptr, i32 }
%struct.slist_head = type { %struct.slist_node }
%struct.slist_node = type { ptr }
%struct.SPITupleTable = type { ptr, ptr, i64, i64, ptr, %struct.slist_node, i32 }
%struct._DestReceiver = type { ptr, ptr, ptr, ptr, i32 }

@SPI_processed = dso_local global i64 0, align 8
@SPI_tuptable = dso_local global ptr null, align 8
@.str.1 = private unnamed_addr constant [6 x i8] c"spi.c\00", align 1
@_SPI_current = internal global ptr null, align 8
@.str.15 = private unnamed_addr constant [39 x i8] c"invalid portal in SPI cursor operation\00", align 1
@CurrentMemoryContext = external global ptr, align 8
@.str.67 = private unnamed_addr constant [44 x i8] c"consistency check on SPI tuple count failed\00", align 1
@__func__._SPI_cursor_operation = private unnamed_addr constant [22 x i8] c"_SPI_cursor_operation\00", align 1
@.str.71 = private unnamed_addr constant [48 x i8] c"SPI cursor operation called while not connected\00", align 1

; Function Attrs: inlinehint nounwind uwtable
define internal ptr @MemoryContextSwitchTo(ptr noundef %0) #4 {
  %2 = alloca ptr, align 8
  %3 = alloca ptr, align 8
  store ptr %0, ptr %2, align 8
  call void @llvm.lifetime.start.p0(i64 8, ptr %3) #9
  %4 = load ptr, ptr @CurrentMemoryContext, align 8
  store ptr %4, ptr %3, align 8
  %5 = load ptr, ptr %2, align 8
  store ptr %5, ptr @CurrentMemoryContext, align 8
  %6 = load ptr, ptr %3, align 8
  call void @llvm.lifetime.end.p0(i64 8, ptr %3) #9
  ret ptr %6
}

; Function Attrs: nounwind uwtable
define internal ptr @_SPI_procmem() #0 {
  %1 = load ptr, ptr @_SPI_current, align 8
  %2 = getelementptr inbounds nuw %struct._SPI_connection, ptr %1, i32 0, i32 4
  %3 = load ptr, ptr %2, align 8
  %4 = call ptr @MemoryContextSwitchTo(ptr noundef %3)
  ret ptr %4
}

; Function Attrs: nounwind uwtable
define internal ptr @_SPI_execmem() #0 {
  %1 = load ptr, ptr @_SPI_current, align 8
  %2 = getelementptr inbounds nuw %struct._SPI_connection, ptr %1, i32 0, i32 5
  %3 = load ptr, ptr %2, align 8
  %4 = call ptr @MemoryContextSwitchTo(ptr noundef %3)
  ret ptr %4
}

; Function Attrs: nounwind uwtable
define internal i32 @_SPI_end_call(i1 noundef zeroext %0) #0 {
  %2 = alloca i8, align 1
  %3 = zext i1 %0 to i8
  store i8 %3, ptr %2, align 1
  %4 = load i8, ptr %2, align 1, !range !4, !noundef !5
  %5 = trunc i8 %4 to i1
  br i1 %5, label %6, label %13

6:                                                ; preds = %1
  %7 = call ptr @_SPI_procmem()
  %8 = load ptr, ptr @_SPI_current, align 8
  %9 = getelementptr inbounds nuw %struct._SPI_connection, ptr %8, i32 0, i32 2
  store i32 0, ptr %9, align 8
  %10 = load ptr, ptr @_SPI_current, align 8
  %11 = getelementptr inbounds nuw %struct._SPI_connection, ptr %10, i32 0, i32 5
  %12 = load ptr, ptr %11, align 8
  call void @MemoryContextReset(ptr noundef %12)
  br label %13

13:                                               ; preds = %6, %1
  ret i32 0
}

; Function Attrs: nounwind uwtable
define internal zeroext i1 @_SPI_checktuples() #0 {
  %1 = alloca i64, align 8
  %2 = alloca ptr, align 8
  %3 = alloca i8, align 1
  call void @llvm.lifetime.start.p0(i64 8, ptr %1) #9
  %4 = load ptr, ptr @_SPI_current, align 8
  %5 = getelementptr inbounds nuw %struct._SPI_connection, ptr %4, i32 0, i32 0
  %6 = load i64, ptr %5, align 8
  store i64 %6, ptr %1, align 8
  call void @llvm.lifetime.start.p0(i64 8, ptr %2) #9
  %7 = load ptr, ptr @_SPI_current, align 8
  %8 = getelementptr inbounds nuw %struct._SPI_connection, ptr %7, i32 0, i32 1
  %9 = load ptr, ptr %8, align 8
  store ptr %9, ptr %2, align 8
  call void @llvm.lifetime.start.p0(i64 1, ptr %3) #9
  store i8 0, ptr %3, align 1
  %10 = load ptr, ptr %2, align 8
  %11 = icmp eq ptr %10, null
  br i1 %11, label %12, label %13

12:                                               ; preds = %0
  store i8 1, ptr %3, align 1
  br label %21

13:                                               ; preds = %0
  %14 = load i64, ptr %1, align 8
  %15 = load ptr, ptr %2, align 8
  %16 = getelementptr inbounds nuw %struct.SPITupleTable, ptr %15, i32 0, i32 2
  %17 = load i64, ptr %16, align 8
  %18 = icmp ne i64 %14, %17
  br i1 %18, label %19, label %20

19:                                               ; preds = %13
  store i8 1, ptr %3, align 1
  br label %20

20:                                               ; preds = %19, %13
  br label %21

21:                                               ; preds = %20, %12
  %22 = load i8, ptr %3, align 1, !range !4, !noundef !5
  %23 = trunc i8 %22 to i1
  call void @llvm.lifetime.end.p0(i64 1, ptr %3) #9
  call void @llvm.lifetime.end.p0(i64 8, ptr %2) #9
  call void @llvm.lifetime.end.p0(i64 8, ptr %1) #9
  ret i1 %23
}

; Function Attrs: nounwind uwtable
define internal i32 @_SPI_begin_call(i1 noundef zeroext %0) #0 {
  %2 = alloca i32, align 4
  %3 = alloca i8, align 1
  %4 = zext i1 %0 to i8
  store i8 %4, ptr %3, align 1
  %5 = load ptr, ptr @_SPI_current, align 8
  %6 = icmp eq ptr %5, null
  br i1 %6, label %7, label %8

7:                                                ; preds = %1
  store i32 -4, ptr %2, align 4
  br label %17

8:                                                ; preds = %1
  %9 = load i8, ptr %3, align 1, !range !4, !noundef !5
  %10 = trunc i8 %9 to i1
  br i1 %10, label %11, label %16

11:                                               ; preds = %8
  %12 = call i32 @GetCurrentSubTransactionId()
  %13 = load ptr, ptr @_SPI_current, align 8
  %14 = getelementptr inbounds nuw %struct._SPI_connection, ptr %13, i32 0, i32 2
  store i32 %12, ptr %14, align 8
  %15 = call ptr @_SPI_execmem()
  br label %16

16:                                               ; preds = %11, %8
  store i32 0, ptr %2, align 4
  br label %17

17:                                               ; preds = %16, %7
  %18 = load i32, ptr %2, align 4
  ret i32 %18
}

; Function Attrs: nounwind uwtable
define internal void @_SPI_cursor_operation(ptr noundef %0, i32 noundef %1, i64 noundef %2, ptr noundef %3) #0 {
  %5 = alloca ptr, align 8
  %6 = alloca i32, align 4
  %7 = alloca i64, align 8
  %8 = alloca ptr, align 8
  %9 = alloca i64, align 8
  store ptr %0, ptr %5, align 8
  store i32 %1, ptr %6, align 4
  store i64 %2, ptr %7, align 8
  store ptr %3, ptr %8, align 8
  call void @llvm.lifetime.start.p0(i64 8, ptr %9) #9
  %10 = load ptr, ptr %5, align 8
  %11 = icmp ne ptr %10, null
  br i1 %11, label %23, label %12

12:                                               ; preds = %4
  br label %13

13:                                               ; preds = %12
  br i1 true, label %14, label %16

14:                                               ; preds = %13
  %15 = call zeroext i1 @errstart_cold(i32 noundef 21, ptr noundef null) #10
  br i1 %15, label %18, label %20

16:                                               ; preds = %13
  %17 = call zeroext i1 @errstart(i32 noundef 21, ptr noundef null)
  br i1 %17, label %18, label %20

18:                                               ; preds = %16, %14
  %19 = call i32 (ptr, ...) @errmsg_internal(ptr noundef @.str.15)
  call void @errfinish(ptr noundef @.str.1, i32 noundef 3014, ptr noundef @__func__._SPI_cursor_operation)
  br label %20

20:                                               ; preds = %18, %16, %14
  unreachable

21:                                               ; No predecessors!
  br label %22

22:                                               ; preds = %21
  br label %23

23:                                               ; preds = %22, %4
  %24 = call i32 @_SPI_begin_call(i1 noundef zeroext true)
  %25 = icmp slt i32 %24, 0
  br i1 %25, label %26, label %37

26:                                               ; preds = %23
  br label %27

27:                                               ; preds = %26
  br i1 true, label %28, label %30

28:                                               ; preds = %27
  %29 = call zeroext i1 @errstart_cold(i32 noundef 21, ptr noundef null) #10
  br i1 %29, label %32, label %34

30:                                               ; preds = %27
  %31 = call zeroext i1 @errstart(i32 noundef 21, ptr noundef null)
  br i1 %31, label %32, label %34

32:                                               ; preds = %30, %28
  %33 = call i32 (ptr, ...) @errmsg_internal(ptr noundef @.str.71)
  call void @errfinish(ptr noundef @.str.1, i32 noundef 3018, ptr noundef @__func__._SPI_cursor_operation)
  br label %34

34:                                               ; preds = %32, %30, %28
  unreachable

35:                                               ; No predecessors!
  br label %36

36:                                               ; preds = %35
  br label %37

37:                                               ; preds = %36, %23
  store i64 0, ptr @SPI_processed, align 8
  store ptr null, ptr @SPI_tuptable, align 8
  %38 = load ptr, ptr @_SPI_current, align 8
  %39 = getelementptr inbounds nuw %struct._SPI_connection, ptr %38, i32 0, i32 0
  store i64 0, ptr %39, align 8
  %40 = load ptr, ptr @_SPI_current, align 8
  %41 = getelementptr inbounds nuw %struct._SPI_connection, ptr %40, i32 0, i32 1
  store ptr null, ptr %41, align 8
  %42 = load ptr, ptr %5, align 8
  %43 = load i32, ptr %6, align 4
  %44 = load i64, ptr %7, align 8
  %45 = load ptr, ptr %8, align 8
  %46 = call i64 @PortalRunFetch(ptr noundef %42, i32 noundef %43, i64 noundef %44, ptr noundef %45)
  store i64 %46, ptr %9, align 8
  %47 = load i64, ptr %9, align 8
  %48 = load ptr, ptr @_SPI_current, align 8
  %49 = getelementptr inbounds nuw %struct._SPI_connection, ptr %48, i32 0, i32 0
  store i64 %47, ptr %49, align 8
  %50 = load ptr, ptr %8, align 8
  %51 = getelementptr inbounds nuw %struct._DestReceiver, ptr %50, i32 0, i32 4
  %52 = load i32, ptr %51, align 8
  %53 = icmp eq i32 %52, 5
  br i1 %53, label %54, label %67

54:                                               ; preds = %37
  %55 = call zeroext i1 @_SPI_checktuples()
  br i1 %55, label %56, label %67

56:                                               ; preds = %54
  br label %57

57:                                               ; preds = %56
  br i1 true, label %58, label %60

58:                                               ; preds = %57
  %59 = call zeroext i1 @errstart_cold(i32 noundef 21, ptr noundef null) #10
  br i1 %59, label %62, label %64

60:                                               ; preds = %57
  %61 = call zeroext i1 @errstart(i32 noundef 21, ptr noundef null)
  br i1 %61, label %62, label %64

62:                                               ; preds = %60, %58
  %63 = call i32 (ptr, ...) @errmsg_internal(ptr noundef @.str.67)
  call void @errfinish(ptr noundef @.str.1, i32 noundef 3043, ptr noundef @__func__._SPI_cursor_operation)
  br label %64

64:                                               ; preds = %62, %60, %58
  unreachable

65:                                               ; No predecessors!
  br label %66

66:                                               ; preds = %65
  br label %67

67:                                               ; preds = %66, %54, %37
  %68 = load ptr, ptr @_SPI_current, align 8
  %69 = getelementptr inbounds nuw %struct._SPI_connection, ptr %68, i32 0, i32 0
  %70 = load i64, ptr %69, align 8
  store i64 %70, ptr @SPI_processed, align 8
  %71 = load ptr, ptr @_SPI_current, align 8
  %72 = getelementptr inbounds nuw %struct._SPI_connection, ptr %71, i32 0, i32 1
  %73 = load ptr, ptr %72, align 8
  store ptr %73, ptr @SPI_tuptable, align 8
  %74 = load ptr, ptr @_SPI_current, align 8
  %75 = getelementptr inbounds nuw %struct._SPI_connection, ptr %74, i32 0, i32 1
  store ptr null, ptr %75, align 8
  %76 = call i32 @_SPI_end_call(i1 noundef zeroext true)
  call void @llvm.lifetime.end.p0(i64 8, ptr %9) #9
  ret void
}