; Function Attrs: nounwind uwtable
define internal fastcc void @_SPI_cursor_operation(ptr noundef %0, i32 noundef %1, i64 noundef %2, ptr noundef %3) unnamed_addr #0 {
  %.not = icmp eq ptr %0, null
  br i1 %.not, label %5, label %8

5:                                                ; preds = %4
  %6 = tail call zeroext i1 @errstart_cold(i32 noundef 21, ptr noundef null) #14
  tail call void @llvm.assume(i1 %6)
  %7 = tail call i32 (ptr, ...) @errmsg_internal(ptr noundef nonnull @.str.15) #15
  tail call void @errfinish(ptr noundef nonnull @.str.1, i32 noundef 3014, ptr noundef nonnull @__func__._SPI_cursor_operation) #15
  unreachable

8:                                                ; preds = %4
  %9 = load ptr, ptr @_SPI_current, align 8
  %.not9 = icmp eq ptr %9, null
  br i1 %.not9, label %_SPI_begin_call.exit, label %_SPI_begin_call.exit.thread

_SPI_begin_call.exit.thread:                      ; preds = %8
  %10 = tail call i32 @GetCurrentSubTransactionId() #15
  %11 = load ptr, ptr @_SPI_current, align 8
  %12 = getelementptr inbounds nuw i8, ptr %11, i64 16
  store i32 %10, ptr %12, align 8
  %13 = getelementptr inbounds nuw i8, ptr %11, i64 40
  %14 = load ptr, ptr %13, align 8
  store ptr %14, ptr @CurrentMemoryContext, align 8
  store i64 0, ptr @SPI_processed, align 8
  store ptr null, ptr @SPI_tuptable, align 8
  tail call void @llvm.memset.p0.i64(ptr noundef nonnull align 8 dereferenceable(16) %11, i8 0, i64 16, i1 false)
  %15 = tail call i64 @PortalRunFetch(ptr noundef nonnull %0, i32 noundef %1, i64 noundef %2, ptr noundef %3) #15
  %16 = load ptr, ptr @_SPI_current, align 8
  store i64 %15, ptr %16, align 8
  %17 = getelementptr inbounds nuw i8, ptr %3, i64 32
  %18 = load i32, ptr %17, align 8
  %19 = icmp eq i32 %18, 5
  %20 = getelementptr inbounds nuw i8, ptr %16, i64 8
  %21 = load ptr, ptr %20, align 8
  br i1 %19, label %24, label %_SPI_begin_call.exit.thread._crit_edge

_SPI_begin_call.exit:                             ; preds = %8
  %22 = tail call zeroext i1 @errstart_cold(i32 noundef 21, ptr noundef null) #14
  tail call void @llvm.assume(i1 %22)
  %23 = tail call i32 (ptr, ...) @errmsg_internal(ptr noundef nonnull @.str.71) #15
  tail call void @errfinish(ptr noundef nonnull @.str.1, i32 noundef 3018, ptr noundef nonnull @__func__._SPI_cursor_operation) #15
  unreachable

24:                                               ; preds = %_SPI_begin_call.exit.thread
  %25 = icmp eq ptr %21, null
  br i1 %25, label %_SPI_checktuples.exit.thread, label %_SPI_checktuples.exit

_SPI_checktuples.exit:                            ; preds = %24
  %26 = getelementptr inbounds nuw i8, ptr %21, i64 16
  %27 = load i64, ptr %26, align 8
  %.not.i.not = icmp eq i64 %15, %27
  br i1 %.not.i.not, label %_SPI_begin_call.exit.thread._crit_edge, label %_SPI_checktuples.exit.thread

_SPI_checktuples.exit.thread:                     ; preds = %24, %_SPI_checktuples.exit
  %28 = tail call zeroext i1 @errstart_cold(i32 noundef 21, ptr noundef null) #14
  tail call void @llvm.assume(i1 %28)
  %29 = tail call i32 (ptr, ...) @errmsg_internal(ptr noundef nonnull @.str.67) #15
  tail call void @errfinish(ptr noundef nonnull @.str.1, i32 noundef 3043, ptr noundef nonnull @__func__._SPI_cursor_operation) #15
  unreachable

_SPI_begin_call.exit.thread._crit_edge:           ; preds = %_SPI_begin_call.exit.thread, %_SPI_checktuples.exit
  store i64 %15, ptr @SPI_processed, align 8
  %30 = getelementptr inbounds nuw i8, ptr %16, i64 8
  store ptr %21, ptr @SPI_tuptable, align 8
  store ptr null, ptr %30, align 8
  %31 = getelementptr inbounds nuw i8, ptr %16, i64 32
  %32 = load ptr, ptr %31, align 8
  store ptr %32, ptr @CurrentMemoryContext, align 8
  %33 = getelementptr inbounds nuw i8, ptr %16, i64 16
  store i32 0, ptr %33, align 8
  %34 = getelementptr inbounds nuw i8, ptr %16, i64 40
  %35 = load ptr, ptr %34, align 8
  tail call void @MemoryContextReset(ptr noundef %35) #15
  ret void
}